target datalayout = "e-m:e-p270:32:32-p271:32:32-p272:64:64-i64:64-i128:128-f80:128-n8:16:32:64-S128"
target triple = "x86_64-pc-linux-gnu"

@ett_bacapp_value = internal global i32 0, align 4
@bacapp_flags = internal global i8 0, align 1
@.str.3827 = private unnamed_addr constant [15 x i8] c"unknown option\00", align 1
@BACnetFileAccessOption = internal constant [3 x { i32, [4 x i8], ptr }] [{ i32, [4 x i8], ptr } { i32 0, [4 x i8] zeroinitializer, ptr @.str.3828 }, { i32, [4 x i8], ptr } { i32 1, [4 x i8] zeroinitializer, ptr @.str.3829 }, { i32, [4 x i8], ptr } zeroinitializer], align 16
@BACnetFileStartOption = internal constant [3 x { i32, [4 x i8], ptr }] [{ i32, [4 x i8], ptr } { i32 0, [4 x i8] zeroinitializer, ptr @.str.3831 }, { i32, [4 x i8], ptr } { i32 1, [4 x i8] zeroinitializer, ptr @.str.3832 }, { i32, [4 x i8], ptr } zeroinitializer], align 16
@.str.3837 = private unnamed_addr constant [22 x i8] c"invalid access method\00", align 1
@.str.3838 = private unnamed_addr constant [15 x i8] c"invalid option\00", align 1
@.str.3839 = private unnamed_addr constant [14 x i8] c"Record Data: \00", align 1
@BACnetFileWriteInfo = internal constant [3 x { i32, [4 x i8], ptr }] [{ i32, [4 x i8], ptr } { i32 0, [4 x i8] zeroinitializer, ptr @.str.3840 }, { i32, [4 x i8], ptr } { i32 1, [4 x i8] zeroinitializer, ptr @.str.3841 }, { i32, [4 x i8], ptr } zeroinitializer], align 16

; Function Attrs: nounwind null_pointer_is_valid sspstrong uwtable
define internal zeroext i1 @tag_is_closing(i8 noundef zeroext %0) #3 {
  %2 = alloca i8, align 1
  store i8 %0, ptr %2, align 1
  %3 = load i8, ptr %2, align 1
  %4 = zext i8 %3 to i32
  %5 = and i32 %4, 7
  %6 = icmp eq i32 %5, 7
  ret i1 %6
}

; Function Attrs: null_pointer_is_valid sspstrong uwtable
define internal i32 @fApplicationTypes(ptr noundef %0, ptr noundef %1, ptr noundef %2, i32 noundef %3, ptr noundef %4) #0 {
  %6 = alloca ptr, align 8
  %7 = alloca ptr, align 8
  %8 = alloca ptr, align 8
  %9 = alloca i32, align 4
  %10 = alloca ptr, align 8
  store ptr %0, ptr %6, align 8
  store ptr %1, ptr %7, align 8
  store ptr %2, ptr %8, align 8
  store i32 %3, ptr %9, align 4
  store ptr %4, ptr %10, align 8
  %11 = load ptr, ptr %6, align 8
  %12 = load ptr, ptr %7, align 8
  %13 = load ptr, ptr %8, align 8
  %14 = load i32, ptr %9, align 4
  %15 = load ptr, ptr %10, align 8
  %16 = call i32 @fApplicationTypesEnumeratedSplit(ptr noundef %11, ptr noundef %12, ptr noundef %13, i32 noundef %14, ptr noundef %15, ptr noundef null, i32 noundef 0)
  ret i32 %16
}

; Function Attrs: nounwind null_pointer_is_valid sspstrong uwtable
define internal zeroext i1 @tag_is_opening(i8 noundef zeroext %0) #3 {
  %2 = alloca i8, align 1
  store i8 %0, ptr %2, align 1
  %3 = load i8, ptr %2, align 1
  %4 = zext i8 %3 to i32
  %5 = and i32 %4, 7
  %6 = icmp eq i32 %5, 6
  ret i1 %6
}

; Function Attrs: null_pointer_is_valid sspstrong uwtable
define internal i32 @fTagHeader(ptr noundef %0, ptr noundef %1, i32 noundef %2, ptr noundef %3, ptr noundef %4, ptr noundef %5) #0 {
  %7 = alloca ptr, align 8
  %8 = alloca ptr, align 8
  %9 = alloca i32, align 4
  %10 = alloca ptr, align 8
  %11 = alloca ptr, align 8
  %12 = alloca ptr, align 8
  store ptr %0, ptr %7, align 8
  store ptr %1, ptr %8, align 8
  store i32 %2, ptr %9, align 4
  store ptr %3, ptr %10, align 8
  store ptr %4, ptr %11, align 8
  store ptr %5, ptr %12, align 8
  %13 = load ptr, ptr %7, align 8
  %14 = load ptr, ptr %8, align 8
  %15 = load i32, ptr %9, align 4
  %16 = load ptr, ptr %10, align 8
  %17 = load ptr, ptr %11, align 8
  %18 = load ptr, ptr %12, align 8
  %19 = call i32 @fTagHeaderTree(ptr noundef %13, ptr noundef %14, ptr noundef null, i32 noundef %15, ptr noundef %16, ptr noundef %17, ptr noundef %18)
  ret i32 %19
}

; Function Attrs: null_pointer_is_valid sspstrong uwtable
define internal i32 @fAccessMethod(ptr noundef %0, ptr noundef %1, ptr noundef %2, i32 noundef %3) #0 {
  %5 = alloca ptr, align 8
  %6 = alloca ptr, align 8
  %7 = alloca ptr, align 8
  %8 = alloca i32, align 4
  %9 = alloca i32, align 4
  %10 = alloca i32, align 4
  %11 = alloca i8, align 1
  %12 = alloca i8, align 1
  %13 = alloca ptr, align 8
  store ptr %0, ptr %5, align 8
  store ptr %1, ptr %6, align 8
  store ptr %2, ptr %7, align 8
  store i32 %3, ptr %8, align 4
  call void @llvm.lifetime.start.p0(i64 4, ptr %9) #7
  store i32 0, ptr %9, align 4
  call void @llvm.lifetime.start.p0(i64 4, ptr %10) #7
  call void @llvm.lifetime.start.p0(i64 1, ptr %11) #7
  call void @llvm.lifetime.start.p0(i64 1, ptr %12) #7
  call void @llvm.lifetime.start.p0(i64 8, ptr %13) #7
  store ptr null, ptr %13, align 8
  %14 = load ptr, ptr %5, align 8
  %15 = load ptr, ptr %6, align 8
  %16 = load i32, ptr %8, align 4
  %17 = call i32 @fTagHeader(ptr noundef %14, ptr noundef %15, i32 noundef %16, ptr noundef %11, ptr noundef %12, ptr noundef %10)
  %18 = load i8, ptr %12, align 1
  %19 = call zeroext i1 @tag_is_opening(i8 noundef zeroext %18)
  br i1 %19, label %20, label %97

20:                                               ; preds = %4
  %21 = load ptr, ptr %7, align 8
  %22 = load ptr, ptr %5, align 8
  %23 = load i32, ptr %8, align 4
  %24 = load i32, ptr @ett_bacapp_value, align 4
  %25 = load i8, ptr %11, align 1
  %26 = zext i8 %25 to i32
  %27 = call ptr @val_to_str_const(i32 noundef %26, ptr noundef @BACnetFileAccessOption, ptr noundef @.str.3837)
  %28 = call ptr @proto_tree_add_subtree(ptr noundef %21, ptr noundef %22, i32 noundef %23, i32 noundef 1, i32 noundef %24, ptr noundef null, ptr noundef %27)
  store ptr %28, ptr %13, align 8
  %29 = load ptr, ptr %5, align 8
  %30 = load ptr, ptr %6, align 8
  %31 = load ptr, ptr %13, align 8
  %32 = load i32, ptr %8, align 4
  %33 = call i32 @fTagHeaderTree(ptr noundef %29, ptr noundef %30, ptr noundef %31, i32 noundef %32, ptr noundef %11, ptr noundef %12, ptr noundef %10)
  %34 = load i32, ptr %8, align 4
  %35 = add i32 %34, %33
  store i32 %35, ptr %8, align 4
  %36 = load ptr, ptr %5, align 8
  %37 = load ptr, ptr %6, align 8
  %38 = load ptr, ptr %13, align 8
  %39 = load i32, ptr %8, align 4
  %40 = load i8, ptr %11, align 1
  %41 = zext i8 %40 to i32
  %42 = call ptr @val_to_str_const(i32 noundef %41, ptr noundef @BACnetFileStartOption, ptr noundef @.str.3838)
  %43 = call i32 @fApplicationTypes(ptr noundef %36, ptr noundef %37, ptr noundef %38, i32 noundef %39, ptr noundef %42)
  store i32 %43, ptr %8, align 4
  %44 = load ptr, ptr %5, align 8
  %45 = load ptr, ptr %6, align 8
  %46 = load ptr, ptr %13, align 8
  %47 = load i32, ptr %8, align 4
  %48 = load i8, ptr %11, align 1
  %49 = zext i8 %48 to i32
  %50 = call ptr @val_to_str_const(i32 noundef %49, ptr noundef @BACnetFileWriteInfo, ptr noundef @.str.3827)
  %51 = call i32 @fApplicationTypes(ptr noundef %44, ptr noundef %45, ptr noundef %46, i32 noundef %47, ptr noundef %50)
  store i32 %51, ptr %8, align 4
  %52 = load i8, ptr %11, align 1
  %53 = zext i8 %52 to i32
  %54 = icmp eq i32 %53, 1
  br i1 %54, label %55, label %75

55:                                               ; preds = %20
  br label %56

56:                                               ; preds = %67, %55
  %57 = load ptr, ptr %5, align 8
  %58 = load i32, ptr %8, align 4
  %59 = call i32 @tvb_reported_length_remaining(ptr noundef %57, i32 noundef %58)
  %60 = icmp sgt i32 %59, 0
  br i1 %60, label %61, label %65

61:                                               ; preds = %56
  %62 = load i32, ptr %8, align 4
  %63 = load i32, ptr %9, align 4
  %64 = icmp ugt i32 %62, %63
  br label %65

65:                                               ; preds = %61, %56
  %66 = phi i1 [ false, %56 ], [ %64, %61 ]
  br i1 %66, label %67, label %74

67:                                               ; preds = %65
  %68 = load i32, ptr %8, align 4
  store i32 %68, ptr %9, align 4
  %69 = load ptr, ptr %5, align 8
  %70 = load ptr, ptr %6, align 8
  %71 = load ptr, ptr %13, align 8
  %72 = load i32, ptr %8, align 4
  %73 = call i32 @fApplicationTypes(ptr noundef %69, ptr noundef %70, ptr noundef %71, i32 noundef %72, ptr noundef @.str.3839)
  store i32 %73, ptr %8, align 4
  br label %56, !llvm.loop !177

74:                                               ; preds = %65
  br label %75

75:                                               ; preds = %74, %20
  %76 = load i8, ptr @bacapp_flags, align 1
  %77 = zext i8 %76 to i32
  %78 = and i32 %77, 4
  %79 = icmp eq i32 %78, 0
  br i1 %79, label %80, label %96

80:                                               ; preds = %75
  %81 = load ptr, ptr %5, align 8
  %82 = load ptr, ptr %6, align 8
  %83 = load i32, ptr %8, align 4
  %84 = call i32 @fTagHeader(ptr noundef %81, ptr noundef %82, i32 noundef %83, ptr noundef %11, ptr noundef %12, ptr noundef %10)
  %85 = load i8, ptr %12, align 1
  %86 = call zeroext i1 @tag_is_closing(i8 noundef zeroext %85)
  br i1 %86, label %87, label %95

87:                                               ; preds = %80
  %88 = load ptr, ptr %5, align 8
  %89 = load ptr, ptr %6, align 8
  %90 = load ptr, ptr %13, align 8
  %91 = load i32, ptr %8, align 4
  %92 = call i32 @fTagHeaderTree(ptr noundef %88, ptr noundef %89, ptr noundef %90, i32 noundef %91, ptr noundef %11, ptr noundef %12, ptr noundef %10)
  %93 = load i32, ptr %8, align 4
  %94 = add i32 %93, %92
  store i32 %94, ptr %8, align 4
  br label %95

95:                                               ; preds = %87, %80
  br label %96

96:                                               ; preds = %95, %75
  br label %97

97:                                               ; preds = %96, %4
  %98 = load i32, ptr %8, align 4
  call void @llvm.lifetime.end.p0(i64 8, ptr %13) #7
  call void @llvm.lifetime.end.p0(i64 1, ptr %12) #7
  call void @llvm.lifetime.end.p0(i64 1, ptr %11) #7
  call void @llvm.lifetime.end.p0(i64 4, ptr %10) #7
  call void @llvm.lifetime.end.p0(i64 4, ptr %9) #7
  ret i32 %98
}