; Function Attrs: null_pointer_is_valid sspstrong uwtable
define internal fastcc i32 @fAccessMethod(ptr noundef nonnull %0, ptr noundef %1, ptr noundef %2, i32 noundef %3) unnamed_addr #0 {
  %5 = alloca i32, align 4
  %6 = alloca i8, align 1
  %7 = alloca i8, align 1
  call void @llvm.lifetime.start.p0(i64 4, ptr nonnull %5) #6
  call void @llvm.lifetime.start.p0(i64 1, ptr nonnull %6) #6
  call void @llvm.lifetime.start.p0(i64 1, ptr nonnull %7) #6
  %8 = call fastcc range(i32 1, 8) i32 @fTagHeaderTree(ptr noundef nonnull %0, ptr noundef %1, ptr noundef null, i32 noundef %3, ptr noundef nonnull %6, ptr noundef nonnull %7, ptr noundef nonnull %5)
  %9 = load i8, ptr %7, align 1
  %10 = and i8 %9, 7
  %11 = icmp eq i8 %10, 6
  br i1 %11, label %12, label %47

12:                                               ; preds = %4
  %13 = load i32, ptr @ett_bacapp_value, align 4
  %14 = load i8, ptr %6, align 1
  %15 = zext i8 %14 to i32
  %16 = tail call ptr @val_to_str_const(i32 noundef %15, ptr noundef nonnull @BACnetFileAccessOption, ptr noundef nonnull @.str.3837)
  %17 = tail call ptr @proto_tree_add_subtree(ptr noundef %2, ptr noundef nonnull %0, i32 noundef %3, i32 noundef 1, i32 noundef %13, ptr noundef null, ptr noundef %16)
  %18 = call fastcc i32 @fTagHeaderTree(ptr noundef %0, ptr noundef %1, ptr noundef %17, i32 noundef %3, ptr noundef nonnull %6, ptr noundef nonnull %7, ptr noundef nonnull %5)
  %19 = add i32 %18, %3
  %20 = load i8, ptr %6, align 1
  %21 = zext i8 %20 to i32
  %22 = tail call ptr @val_to_str_const(i32 noundef %21, ptr noundef nonnull @BACnetFileStartOption, ptr noundef nonnull @.str.3838)
  %23 = tail call fastcc i32 @fApplicationTypesEnumeratedSplit(ptr noundef nonnull %0, ptr noundef %1, ptr noundef %17, i32 noundef %19, ptr noundef %22, ptr noundef null, i32 noundef 0)
  %24 = tail call ptr @val_to_str_const(i32 noundef %21, ptr noundef nonnull @BACnetFileWriteInfo, ptr noundef nonnull @.str.3827)
  %25 = tail call fastcc i32 @fApplicationTypesEnumeratedSplit(ptr noundef nonnull %0, ptr noundef %1, ptr noundef %17, i32 noundef %23, ptr noundef %24, ptr noundef null, i32 noundef 0)
  %26 = icmp eq i8 %20, 1
  br i1 %26, label %.preheader, label %.loopexit

.preheader:                                       ; preds = %12
  %27 = tail call i32 @tvb_reported_length_remaining(ptr noundef nonnull %0, i32 noundef %25)
  %28 = icmp sgt i32 %27, 0
  %29 = icmp ne i32 %25, 0
  %30 = and i1 %29, %28
  br i1 %30, label %.lr.ph, label %.loopexit

.lr.ph:                                           ; preds = %.preheader, %.lr.ph
  %.237 = phi i32 [ %31, %.lr.ph ], [ %25, %.preheader ]
  %31 = tail call fastcc i32 @fApplicationTypesEnumeratedSplit(ptr noundef nonnull %0, ptr noundef %1, ptr noundef %17, i32 noundef %.237, ptr noundef nonnull @.str.3839, ptr noundef null, i32 noundef 0)
  %32 = tail call i32 @tvb_reported_length_remaining(ptr noundef nonnull %0, i32 noundef %31)
  %33 = icmp sgt i32 %32, 0
  %34 = icmp ugt i32 %31, %.237
  %35 = and i1 %34, %33
  br i1 %35, label %.lr.ph, label %.loopexit, !llvm.loop !190

.loopexit:                                        ; preds = %.lr.ph, %.preheader, %12
  %.1 = phi i32 [ %25, %12 ], [ %25, %.preheader ], [ %31, %.lr.ph ]
  %36 = load i8, ptr @bacapp_flags, align 1
  %37 = and i8 %36, 4
  %38 = icmp eq i8 %37, 0
  br i1 %38, label %39, label %47

39:                                               ; preds = %.loopexit
  %40 = call fastcc range(i32 1, 8) i32 @fTagHeaderTree(ptr noundef nonnull %0, ptr noundef %1, ptr noundef null, i32 noundef %.1, ptr noundef nonnull %6, ptr noundef nonnull %7, ptr noundef nonnull %5)
  %41 = load i8, ptr %7, align 1
  %42 = and i8 %41, 7
  %43 = icmp eq i8 %42, 7
  br i1 %43, label %44, label %47

44:                                               ; preds = %39
  %45 = call fastcc i32 @fTagHeaderTree(ptr noundef %0, ptr noundef %1, ptr noundef %17, i32 noundef %.1, ptr noundef nonnull %6, ptr noundef nonnull %7, ptr noundef nonnull %5)
  %46 = add i32 %45, %.1
  br label %47

47:                                               ; preds = %.loopexit, %44, %39, %4
  %.036 = phi i32 [ %46, %44 ], [ %.1, %39 ], [ %.1, %.loopexit ], [ %3, %4 ]
  call void @llvm.lifetime.end.p0(i64 1, ptr nonnull %7) #6
  call void @llvm.lifetime.end.p0(i64 1, ptr nonnull %6) #6
  call void @llvm.lifetime.end.p0(i64 4, ptr nonnull %5) #6
  ret i32 %.036
}